#include <math.h>
#include <stdio.h>
#include <stdlib.h>
#include <string.h>

int main(){
	int b,c,i,j,count;
	double a,x,y,z;
	char m[550],n[550];
	scanf("%lf\n%s\n%s\n",&a,m,n);
	b=strlen(m);
	c=strlen(n);
	if(b!=c)
		printf("error");
	j=0;
	if(b==c){
		for(i=0;m[i]!='\0';i++){
			if(m[i]!='A'&&m[i]!='T'&&m[i]!='C'&&m[i]!='G')
				j++;
		}
		for(i=0;n[i]!='\0';i++){
			if(n[i]!='A'&&n[i]!='T'&&n[i]!='C'&&n[i]!='G')
				j++;
		}
		if(j>0)
			printf("error");
	}
	count=0;
	if(b==c&&j==0){
		for(i=0;m[i]!='\0';i++){
			if(m[i]==n[i])
				count++;
		}
		y=count;
		z=b;
		x=z*a;
		if(y>=x)
			printf("yes");
		else
			printf("no");
	}
	return 0;
}