; ModuleID = '5/640.c'
source_filename = "5/640.c"
target datalayout = "e-m:e-p270:32:32-p271:32:32-p272:64:64-i64:64-f80:128-n8:16:32:64-S128"
target triple = "x86_64-pc-linux-gnu"

@.str = private unnamed_addr constant [11 x i8] c"%lf\0A%s\0A%s\0A\00", align 1
@.str.1 = private unnamed_addr constant [6 x i8] c"error\00", align 1
@.str.2 = private unnamed_addr constant [4 x i8] c"yes\00", align 1
@.str.3 = private unnamed_addr constant [3 x i8] c"no\00", align 1

; Function Attrs: noinline nounwind uwtable
define dso_local i32 @main() #0 {
  %1 = alloca i32, align 4
  %2 = alloca i32, align 4
  %3 = alloca i32, align 4
  %4 = alloca i32, align 4
  %5 = alloca i32, align 4
  %6 = alloca i32, align 4
  %7 = alloca double, align 8
  %8 = alloca double, align 8
  %9 = alloca double, align 8
  %10 = alloca double, align 8
  %11 = alloca [550 x i8], align 16
  %12 = alloca [550 x i8], align 16
  store i32 0, i32* %1, align 4
  %13 = getelementptr inbounds [550 x i8], [550 x i8]* %11, i64 0, i64 0
  %14 = getelementptr inbounds [550 x i8], [550 x i8]* %12, i64 0, i64 0
  %15 = call i32 (i8*, ...) @__isoc99_scanf(i8* getelementptr inbounds ([11 x i8], [11 x i8]* @.str, i64 0, i64 0), double* %7, i8* %13, i8* %14)
  %16 = getelementptr inbounds [550 x i8], [550 x i8]* %11, i64 0, i64 0
  %17 = call i64 @strlen(i8* %16) #3
  %18 = trunc i64 %17 to i32
  store i32 %18, i32* %2, align 4
  %19 = getelementptr inbounds [550 x i8], [550 x i8]* %12, i64 0, i64 0
  %20 = call i64 @strlen(i8* %19) #3
  %21 = trunc i64 %20 to i32
  store i32 %21, i32* %3, align 4
  %22 = load i32, i32* %2, align 4
  %23 = load i32, i32* %3, align 4
  %24 = icmp ne i32 %22, %23
  br i1 %24, label %25, label %27

25:                                               ; preds = %0
  %26 = call i32 (i8*, ...) @printf(i8* getelementptr inbounds ([6 x i8], [6 x i8]* @.str.1, i64 0, i64 0))
  br label %27

27:                                               ; preds = %25, %0
  store i32 0, i32* %5, align 4
  %28 = load i32, i32* %2, align 4
  %29 = load i32, i32* %3, align 4
  %30 = icmp eq i32 %28, %29
  br i1 %30, label %31, label %123

31:                                               ; preds = %27
  store i32 0, i32* %4, align 4
  br label %32

32:                                               ; preds = %71, %31
  %33 = load i32, i32* %4, align 4
  %34 = sext i32 %33 to i64
  %35 = getelementptr inbounds [550 x i8], [550 x i8]* %11, i64 0, i64 %34
  %36 = load i8, i8* %35, align 1
  %37 = sext i8 %36 to i32
  %38 = icmp ne i32 %37, 0
  br i1 %38, label %39, label %74

39:                                               ; preds = %32
  %40 = load i32, i32* %4, align 4
  %41 = sext i32 %40 to i64
  %42 = getelementptr inbounds [550 x i8], [550 x i8]* %11, i64 0, i64 %41
  %43 = load i8, i8* %42, align 1
  %44 = sext i8 %43 to i32
  %45 = icmp ne i32 %44, 65
  br i1 %45, label %46, label %70

46:                                               ; preds = %39
  %47 = load i32, i32* %4, align 4
  %48 = sext i32 %47 to i64
  %49 = getelementptr inbounds [550 x i8], [550 x i8]* %11, i64 0, i64 %48
  %50 = load i8, i8* %49, align 1
  %51 = sext i8 %50 to i32
  %52 = icmp ne i32 %51, 84
  br i1 %52, label %53, label %70

53:                                               ; preds = %46
  %54 = load i32, i32* %4, align 4
  %55 = sext i32 %54 to i64
  %56 = getelementptr inbounds [550 x i8], [550 x i8]* %11, i64 0, i64 %55
  %57 = load i8, i8* %56, align 1
  %58 = sext i8 %57 to i32
  %59 = icmp ne i32 %58, 67
  br i1 %59, label %60, label %70

60:                                               ; preds = %53
  %61 = load i32, i32* %4, align 4
  %62 = sext i32 %61 to i64
  %63 = getelementptr inbounds [550 x i8], [550 x i8]* %11, i64 0, i64 %62
  %64 = load i8, i8* %63, align 1
  %65 = sext i8 %64 to i32
  %66 = icmp ne i32 %65, 71
  br i1 %66, label %67, label %70

67:                                               ; preds = %60
  %68 = load i32, i32* %5, align 4
  %69 = add nsw i32 %68, 1
  store i32 %69, i32* %5, align 4
  br label %70

70:                                               ; preds = %67, %60, %53, %46, %39
  br label %71

71:                                               ; preds = %70
  %72 = load i32, i32* %4, align 4
  %73 = add nsw i32 %72, 1
  store i32 %73, i32* %4, align 4
  br label %32

74:                                               ; preds = %32
  store i32 0, i32* %4, align 4
  br label %75

75:                                               ; preds = %114, %74
  %76 = load i32, i32* %4, align 4
  %77 = sext i32 %76 to i64
  %78 = getelementptr inbounds [550 x i8], [550 x i8]* %12, i64 0, i64 %77
  %79 = load i8, i8* %78, align 1
  %80 = sext i8 %79 to i32
  %81 = icmp ne i32 %80, 0
  br i1 %81, label %82, label %117

82:                                               ; preds = %75
  %83 = load i32, i32* %4, align 4
  %84 = sext i32 %83 to i64
  %85 = getelementptr inbounds [550 x i8], [550 x i8]* %12, i64 0, i64 %84
  %86 = load i8, i8* %85, align 1
  %87 = sext i8 %86 to i32
  %88 = icmp ne i32 %87, 65
  br i1 %88, label %89, label %113

89:                                               ; preds = %82
  %90 = load i32, i32* %4, align 4
  %91 = sext i32 %90 to i64
  %92 = getelementptr inbounds [550 x i8], [550 x i8]* %12, i64 0, i64 %91
  %93 = load i8, i8* %92, align 1
  %94 = sext i8 %93 to i32
  %95 = icmp ne i32 %94, 84
  br i1 %95, label %96, label %113

96:                                               ; preds = %89
  %97 = load i32, i32* %4, align 4
  %98 = sext i32 %97 to i64
  %99 = getelementptr inbounds [550 x i8], [550 x i8]* %12, i64 0, i64 %98
  %100 = load i8, i8* %99, align 1
  %101 = sext i8 %100 to i32
  %102 = icmp ne i32 %101, 67
  br i1 %102, label %103, label %113

103:                                              ; preds = %96
  %104 = load i32, i32* %4, align 4
  %105 = sext i32 %104 to i64
  %106 = getelementptr inbounds [550 x i8], [550 x i8]* %12, i64 0, i64 %105
  %107 = load i8, i8* %106, align 1
  %108 = sext i8 %107 to i32
  %109 = icmp ne i32 %108, 71
  br i1 %109, label %110, label %113

110:                                              ; preds = %103
  %111 = load i32, i32* %5, align 4
  %112 = add nsw i32 %111, 1
  store i32 %112, i32* %5, align 4
  br label %113

113:                                              ; preds = %110, %103, %96, %89, %82
  br label %114

114:                                              ; preds = %113
  %115 = load i32, i32* %4, align 4
  %116 = add nsw i32 %115, 1
  store i32 %116, i32* %4, align 4
  br label %75

117:                                              ; preds = %75
  %118 = load i32, i32* %5, align 4
  %119 = icmp sgt i32 %118, 0
  br i1 %119, label %120, label %122

120:                                              ; preds = %117
  %121 = call i32 (i8*, ...) @printf(i8* getelementptr inbounds ([6 x i8], [6 x i8]* @.str.1, i64 0, i64 0))
  br label %122

122:                                              ; preds = %120, %117
  br label %123

123:                                              ; preds = %122, %27
  store i32 0, i32* %6, align 4
  %124 = load i32, i32* %2, align 4
  %125 = load i32, i32* %3, align 4
  %126 = icmp eq i32 %124, %125
  br i1 %126, label %127, label %173

127:                                              ; preds = %123
  %128 = load i32, i32* %5, align 4
  %129 = icmp eq i32 %128, 0
  br i1 %129, label %130, label %173

130:                                              ; preds = %127
  store i32 0, i32* %4, align 4
  br label %131

131:                                              ; preds = %154, %130
  %132 = load i32, i32* %4, align 4
  %133 = sext i32 %132 to i64
  %134 = getelementptr inbounds [550 x i8], [550 x i8]* %11, i64 0, i64 %133
  %135 = load i8, i8* %134, align 1
  %136 = sext i8 %135 to i32
  %137 = icmp ne i32 %136, 0
  br i1 %137, label %138, label %157

138:                                              ; preds = %131
  %139 = load i32, i32* %4, align 4
  %140 = sext i32 %139 to i64
  %141 = getelementptr inbounds [550 x i8], [550 x i8]* %11, i64 0, i64 %140
  %142 = load i8, i8* %141, align 1
  %143 = sext i8 %142 to i32
  %144 = load i32, i32* %4, align 4
  %145 = sext i32 %144 to i64
  %146 = getelementptr inbounds [550 x i8], [550 x i8]* %12, i64 0, i64 %145
  %147 = load i8, i8* %146, align 1
  %148 = sext i8 %147 to i32
  %149 = icmp eq i32 %143, %148
  br i1 %149, label %150, label %153

150:                                              ; preds = %138
  %151 = load i32, i32* %6, align 4
  %152 = add nsw i32 %151, 1
  store i32 %152, i32* %6, align 4
  br label %153

153:                                              ; preds = %150, %138
  br label %154

154:                                              ; preds = %153
  %155 = load i32, i32* %4, align 4
  %156 = add nsw i32 %155, 1
  store i32 %156, i32* %4, align 4
  br label %131

157:                                              ; preds = %131
  %158 = load i32, i32* %6, align 4
  %159 = sitofp i32 %158 to double
  store double %159, double* %9, align 8
  %160 = load i32, i32* %2, align 4
  %161 = sitofp i32 %160 to double
  store double %161, double* %10, align 8
  %162 = load double, double* %10, align 8
  %163 = load double, double* %7, align 8
  %164 = fmul double %162, %163
  store double %164, double* %8, align 8
  %165 = load double, double* %9, align 8
  %166 = load double, double* %8, align 8
  %167 = fcmp oge double %165, %166
  br i1 %167, label %168, label %170

168:                                              ; preds = %157
  %169 = call i32 (i8*, ...) @printf(i8* getelementptr inbounds ([4 x i8], [4 x i8]* @.str.2, i64 0, i64 0))
  br label %172

170:                                              ; preds = %157
  %171 = call i32 (i8*, ...) @printf(i8* getelementptr inbounds ([3 x i8], [3 x i8]* @.str.3, i64 0, i64 0))
  br label %172

172:                                              ; preds = %170, %168
  br label %173

173:                                              ; preds = %172, %127, %123
  ret i32 0
}

declare dso_local i32 @__isoc99_scanf(i8*, ...) #1

; Function Attrs: nounwind readonly
declare dso_local i64 @strlen(i8*) #2

declare dso_local i32 @printf(i8*, ...) #1


!llvm.module.flags = !{!0}
!llvm.ident = !{!1}

!0 = !{i32 1, !"wchar_size", i32 4}
!1 = !{!"clang version 10.0.0-4ubuntu1 "}
